target datalayout = "e-m:e-p270:32:32-p271:32:32-p272:64:64-i64:64-i128:128-f80:128-n8:16:32:64-S128"
target triple = "x86_64-pc-linux-gnu"

%struct.ProcSignalHeader = type { %struct.pg_atomic_uint64, [0 x %struct.ProcSignalSlot] }
%struct.pg_atomic_uint64 = type { i64 }
%struct.ProcSignalSlot = type { %struct.pg_atomic_uint32, i8, i32, [14 x i32], i8, %struct.pg_atomic_uint64, %struct.pg_atomic_uint32, %struct.ConditionVariable }
%struct.pg_atomic_uint32 = type { i32 }
%struct.ConditionVariable = type { i8, %struct.proclist_head }
%struct.proclist_head = type { i32, i32 }

@ProcSignal = internal global ptr null, align 8
@.str.2 = private unnamed_addr constant [13 x i8] c"procsignal.c\00", align 1
@MyProcPid = external global i32, align 4
@MyProcSignalSlot = internal global ptr null, align 8
@__func__.CleanupProcSignalState = private unnamed_addr constant [23 x i8] c"CleanupProcSignalState\00", align 1
@.str.11 = private unnamed_addr constant [60 x i8] c"process %d releasing ProcSignal slot %d, but it contains %d\00", align 1

; Function Attrs: inlinehint nounwind uwtable
define internal void @pg_atomic_write_u64_impl(ptr noundef %0, i64 noundef %1) #3 {
  %3 = alloca ptr, align 8
  %4 = alloca i64, align 8
  store ptr %0, ptr %3, align 8
  store i64 %1, ptr %4, align 8
  %5 = load i64, ptr %4, align 8
  %6 = load ptr, ptr %3, align 8
  %7 = getelementptr inbounds nuw %struct.pg_atomic_uint64, ptr %6, i32 0, i32 0
  store volatile i64 %5, ptr %7, align 8
  ret void
}

; Function Attrs: inlinehint nounwind uwtable
define internal void @pg_atomic_write_u32_impl(ptr noundef %0, i32 noundef %1) #3 {
  %3 = alloca ptr, align 8
  %4 = alloca i32, align 4
  store ptr %0, ptr %3, align 8
  store i32 %1, ptr %4, align 4
  %5 = load i32, ptr %4, align 4
  %6 = load ptr, ptr %3, align 8
  %7 = getelementptr inbounds nuw %struct.pg_atomic_uint32, ptr %6, i32 0, i32 0
  store volatile i32 %5, ptr %7, align 4
  ret void
}

; Function Attrs: inlinehint nounwind uwtable
define internal i32 @pg_atomic_read_u32_impl(ptr noundef %0) #3 {
  %2 = alloca ptr, align 8
  store ptr %0, ptr %2, align 8
  %3 = load ptr, ptr %2, align 8
  %4 = getelementptr inbounds nuw %struct.pg_atomic_uint32, ptr %3, i32 0, i32 0
  %5 = load volatile i32, ptr %4, align 4
  ret i32 %5
}

; Function Attrs: inlinehint nounwind uwtable
define internal void @pg_atomic_write_u64(ptr noundef %0, i64 noundef %1) #3 {
  %3 = alloca ptr, align 8
  %4 = alloca i64, align 8
  store ptr %0, ptr %3, align 8
  store i64 %1, ptr %4, align 8
  %5 = load ptr, ptr %3, align 8
  %6 = load i64, ptr %4, align 8
  call void @pg_atomic_write_u64_impl(ptr noundef %5, i64 noundef %6)
  ret void
}

; Function Attrs: inlinehint nounwind uwtable
define internal void @pg_atomic_write_u32(ptr noundef %0, i32 noundef %1) #3 {
  %3 = alloca ptr, align 8
  %4 = alloca i32, align 4
  store ptr %0, ptr %3, align 8
  store i32 %1, ptr %4, align 4
  %5 = load ptr, ptr %3, align 8
  %6 = load i32, ptr %4, align 4
  call void @pg_atomic_write_u32_impl(ptr noundef %5, i32 noundef %6)
  ret void
}

; Function Attrs: inlinehint nounwind uwtable
define internal i32 @pg_atomic_read_u32(ptr noundef %0) #3 {
  %2 = alloca ptr, align 8
  store ptr %0, ptr %2, align 8
  %3 = load ptr, ptr %2, align 8
  %4 = call i32 @pg_atomic_read_u32_impl(ptr noundef %3)
  ret i32 %4
}

; Function Attrs: inlinehint nounwind uwtable
define internal i32 @tas(ptr noundef %0) #3 {
  %2 = alloca ptr, align 8
  %3 = alloca i8, align 1
  store ptr %0, ptr %2, align 8
  call void @llvm.lifetime.start.p0(i64 1, ptr %3) #11
  store i8 1, ptr %3, align 1
  %4 = load i8, ptr %3, align 1
  %5 = load ptr, ptr %2, align 8
  %6 = call i8 asm sideeffect "\09lock\09\09\09\0A\09xchgb\09$0,$1\09\0A", "=q,=*m,0,*m,~{memory},~{cc},~{dirflag},~{fpsr},~{flags}"(ptr elementtype(i8) %5, i8 %4, ptr elementtype(i8) %5) #11, !srcloc !13
  store i8 %6, ptr %3, align 1
  %7 = load i8, ptr %3, align 1
  %8 = zext i8 %7 to i32
  call void @llvm.lifetime.end.p0(i64 1, ptr %3) #11
  ret i32 %8
}

; Function Attrs: nounwind uwtable
define internal void @CleanupProcSignalState(i32 noundef %0, i64 noundef %1) #0 {
  %3 = alloca i32, align 4
  %4 = alloca i64, align 8
  %5 = alloca i32, align 4
  %6 = alloca ptr, align 8
  %7 = alloca i32, align 4
  store i32 %0, ptr %3, align 4
  store i64 %1, ptr %4, align 8
  call void @llvm.lifetime.start.p0(i64 4, ptr %5) #11
  call void @llvm.lifetime.start.p0(i64 8, ptr %6) #11
  %8 = load ptr, ptr @MyProcSignalSlot, align 8
  store ptr %8, ptr %6, align 8
  store ptr null, ptr @MyProcSignalSlot, align 8
  %9 = load ptr, ptr %6, align 8
  %10 = getelementptr inbounds nuw %struct.ProcSignalSlot, ptr %9, i32 0, i32 4
  %11 = call i32 @tas(ptr noundef %10)
  %12 = icmp ne i32 %11, 0
  br i1 %12, label %13, label %17

13:                                               ; preds = %2
  %14 = load ptr, ptr %6, align 8
  %15 = getelementptr inbounds nuw %struct.ProcSignalSlot, ptr %14, i32 0, i32 4
  %16 = call i32 @s_lock(ptr noundef %15, ptr noundef @.str.2, i32 noundef 239, ptr noundef @__func__.CleanupProcSignalState)
  br label %18

17:                                               ; preds = %2
  br label %18

18:                                               ; preds = %17, %13
  %19 = load ptr, ptr %6, align 8
  %20 = getelementptr inbounds nuw %struct.ProcSignalSlot, ptr %19, i32 0, i32 0
  %21 = call i32 @pg_atomic_read_u32(ptr noundef %20)
  store i32 %21, ptr %5, align 4
  %22 = load i32, ptr %5, align 4
  %23 = load i32, ptr @MyProcPid, align 4
  %24 = icmp ne i32 %22, %23
  br i1 %24, label %25, label %52

25:                                               ; preds = %18
  br label %26

26:                                               ; preds = %25
  call void asm sideeffect "", "~{memory},~{dirflag},~{fpsr},~{flags}"() #11, !srcloc !14
  %27 = load ptr, ptr %6, align 8
  %28 = getelementptr inbounds nuw %struct.ProcSignalSlot, ptr %27, i32 0, i32 4
  store i8 0, ptr %28, align 4
  br label %29

29:                                               ; preds = %26
  br label %30

30:                                               ; preds = %29
  br label %31

31:                                               ; preds = %30
  br i1 false, label %32, label %34

32:                                               ; preds = %31
  %33 = call zeroext i1 @errstart_cold(i32 noundef 15, ptr noundef null) #12
  br i1 %33, label %36, label %49

34:                                               ; preds = %31
  %35 = call zeroext i1 @errstart(i32 noundef 15, ptr noundef null)
  br i1 %35, label %36, label %49

36:                                               ; preds = %34, %32
  %37 = load i32, ptr @MyProcPid, align 4
  %38 = load ptr, ptr %6, align 8
  %39 = load ptr, ptr @ProcSignal, align 8
  %40 = getelementptr inbounds nuw %struct.ProcSignalHeader, ptr %39, i32 0, i32 1
  %41 = getelementptr inbounds [0 x %struct.ProcSignalSlot], ptr %40, i64 0, i64 0
  %42 = ptrtoint ptr %38 to i64
  %43 = ptrtoint ptr %41 to i64
  %44 = sub i64 %42, %43
  %45 = sdiv exact i64 %44, 96
  %46 = trunc i64 %45 to i32
  %47 = load i32, ptr %5, align 4
  %48 = call i32 (ptr, ...) @errmsg_internal(ptr noundef @.str.11, i32 noundef %37, i32 noundef %46, i32 noundef %47)
  call void @errfinish(ptr noundef @.str.2, i32 noundef 249, ptr noundef @__func__.CleanupProcSignalState)
  br label %49

49:                                               ; preds = %36, %34, %32
  br label %50

50:                                               ; preds = %49
  br label %51

51:                                               ; preds = %50
  store i32 1, ptr %7, align 4
  br label %68

52:                                               ; preds = %18
  %53 = load ptr, ptr %6, align 8
  %54 = getelementptr inbounds nuw %struct.ProcSignalSlot, ptr %53, i32 0, i32 0
  call void @pg_atomic_write_u32(ptr noundef %54, i32 noundef 0)
  %55 = load ptr, ptr %6, align 8
  %56 = getelementptr inbounds nuw %struct.ProcSignalSlot, ptr %55, i32 0, i32 1
  store i8 0, ptr %56, align 4
  %57 = load ptr, ptr %6, align 8
  %58 = getelementptr inbounds nuw %struct.ProcSignalSlot, ptr %57, i32 0, i32 2
  store i32 0, ptr %58, align 8
  %59 = load ptr, ptr %6, align 8
  %60 = getelementptr inbounds nuw %struct.ProcSignalSlot, ptr %59, i32 0, i32 5
  call void @pg_atomic_write_u64(ptr noundef %60, i64 noundef -1)
  br label %61

61:                                               ; preds = %52
  call void asm sideeffect "", "~{memory},~{dirflag},~{fpsr},~{flags}"() #11, !srcloc !15
  %62 = load ptr, ptr %6, align 8
  %63 = getelementptr inbounds nuw %struct.ProcSignalSlot, ptr %62, i32 0, i32 4
  store i8 0, ptr %63, align 4
  br label %64

64:                                               ; preds = %61
  br label %65

65:                                               ; preds = %64
  %66 = load ptr, ptr %6, align 8
  %67 = getelementptr inbounds nuw %struct.ProcSignalSlot, ptr %66, i32 0, i32 7
  call void @ConditionVariableBroadcast(ptr noundef %67)
  store i32 0, ptr %7, align 4
  br label %68

68:                                               ; preds = %65, %51
  call void @llvm.lifetime.end.p0(i64 8, ptr %6) #11
  call void @llvm.lifetime.end.p0(i64 4, ptr %5) #11
  %69 = load i32, ptr %7, align 4
  switch i32 %69, label %71 [
    i32 0, label %70
    i32 1, label %70
  ]

70:                                               ; preds = %68, %68
  ret void

71:                                               ; preds = %68
  unreachable
}