; Function Attrs: nounwind uwtable
define internal void @CleanupProcSignalState(i32 %0, i64 %1) #0 {
  %3 = load ptr, ptr @MyProcSignalSlot, align 8
  store ptr null, ptr @MyProcSignalSlot, align 8
  %4 = getelementptr inbounds nuw i8, ptr %3, i64 68
  %5 = tail call i8 asm sideeffect "\09lock\09\09\09\0A\09xchgb\09$0,$1\09\0A", "=q,=*m,0,*m,~{memory},~{cc},~{dirflag},~{fpsr},~{flags}"(ptr nonnull elementtype(i8) %4, i8 1, ptr nonnull elementtype(i8) %4) #11, !srcloc !9
  %.not = icmp eq i8 %5, 0
  br i1 %.not, label %8, label %6

6:                                                ; preds = %2
  %7 = tail call i32 @s_lock(ptr noundef nonnull %4, ptr noundef nonnull @.str.2, i32 noundef 239, ptr noundef nonnull @__func__.CleanupProcSignalState) #11
  br label %8

8:                                                ; preds = %2, %6
  %9 = load volatile i32, ptr %3, align 4
  %10 = load i32, ptr @MyProcPid, align 4
  %.not12 = icmp eq i32 %9, %10
  br i1 %.not12, label %23, label %11

11:                                               ; preds = %8
  tail call void asm sideeffect "", "~{memory},~{dirflag},~{fpsr},~{flags}"() #11, !srcloc !12
  store i8 0, ptr %4, align 4
  %12 = tail call zeroext i1 @errstart(i32 noundef 15, ptr noundef null) #11
  br i1 %12, label %13, label %28

13:                                               ; preds = %11
  %14 = load i32, ptr @MyProcPid, align 4
  %15 = load ptr, ptr @ProcSignal, align 8
  %16 = getelementptr inbounds nuw i8, ptr %15, i64 8
  %17 = ptrtoint ptr %3 to i64
  %18 = ptrtoint ptr %16 to i64
  %19 = sub i64 %17, %18
  %20 = sdiv exact i64 %19, 96
  %21 = trunc i64 %20 to i32
  %22 = tail call i32 (ptr, ...) @errmsg_internal(ptr noundef nonnull @.str.11, i32 noundef %14, i32 noundef %21, i32 noundef %9) #11
  tail call void @errfinish(ptr noundef nonnull @.str.2, i32 noundef 249, ptr noundef nonnull @__func__.CleanupProcSignalState) #11
  br label %28

23:                                               ; preds = %8
  store volatile i32 0, ptr %3, align 4
  %24 = getelementptr inbounds nuw i8, ptr %3, i64 4
  store i8 0, ptr %24, align 4
  %25 = getelementptr inbounds nuw i8, ptr %3, i64 8
  store i32 0, ptr %25, align 8
  %26 = getelementptr inbounds nuw i8, ptr %3, i64 72
  store volatile i64 -1, ptr %26, align 8
  tail call void asm sideeffect "", "~{memory},~{dirflag},~{fpsr},~{flags}"() #11, !srcloc !13
  store i8 0, ptr %4, align 4
  %27 = getelementptr inbounds nuw i8, ptr %3, i64 84
  tail call void @ConditionVariableBroadcast(ptr noundef nonnull %27) #11
  br label %28

28:                                               ; preds = %11, %13, %23
  ret void
}